Certificate:
    Data:
        Version: 3 (0x2)
        Serial Number: 4660 (0x1234)
    Signature Algorithm: sha256WithRSAEncryption
        Issuer: C=EC, ST=Azuay, L=Cuenca, O=Criptografia, CN=practica.local/emailAddress=admin@practica.local
        Validity
            Not Before: Feb 10 20:21:23 2021 GMT
            Not After : Feb 10 20:21:23 2022 GMT
        Subject: C=EC, ST=Azuay, O=Criptografia, CN=practica.local/emailAddress=admin@practica.local
        Subject Public Key Info:
            Public Key Algorithm: rsaEncryption
                Public-Key: (2048 bit)
                Modulus:
                    00:c5:ac:cf:ef:2d:67:30:58:1b:29:e3:eb:3c:c8:
                    9c:97:65:df:92:f9:02:fa:b8:75:6f:0b:9e:c7:79:
                    64:27:57:b0:8f:a5:35:2e:ee:69:f5:19:0e:43:dc:
                    70:9d:ef:52:eb:cb:cc:2e:9d:be:99:83:d4:c5:e1:
                    c3:61:b2:14:bc:86:63:ca:06:84:ed:34:10:59:90:
                    ea:30:48:93:44:53:88:70:5b:64:cd:08:64:7a:22:
                    cc:53:98:ef:97:a3:0f:ce:e8:70:bd:7d:e9:70:72:
                    4e:94:e5:ee:6c:7f:96:41:73:c6:8c:16:57:c7:ed:
                    95:bf:dd:ca:3e:2b:fb:91:71:df:99:e1:80:33:ad:
                    49:1d:68:e6:f9:5a:91:75:d7:c9:c4:df:3d:fc:c3:
                    a5:11:6a:c5:42:d8:1a:ce:88:07:a9:45:ab:b7:b5:
                    3c:62:37:23:49:70:0f:7e:e1:bf:ee:2b:3c:9b:ef:
                    78:87:47:97:89:f9:43:cb:32:14:9a:32:b3:e6:e1:
                    2c:4d:f4:bf:08:0c:5c:db:eb:23:3e:d7:b3:f8:ca:
                    ce:5a:86:f5:7c:78:09:aa:70:56:90:dd:25:3f:18:
                    6f:f0:ad:12:dd:c0:65:7d:b1:50:48:a1:42:b0:1e:
                    dd:c7:3d:06:f3:76:c6:3d:7b:f8:a9:6a:ac:f1:b1:
                    8e:eb
                Exponent: 65537 (0x10001)
        X509v3 extensions:
            X509v3 Basic Constraints: 
                CA:FALSE
            Netscape Comment: 
                OpenSSL Generated Certificate
            X509v3 Subject Key Identifier: 
                50:E1:36:C5:7D:93:C1:28:5B:E1:A8:67:7B:5D:B1:DD:A7:63:7D:C1
            X509v3 Authority Key Identifier: 
                keyid:8E:E2:F5:96:02:8E:DF:DC:87:6A:05:1B:F3:DB:A2:5B:C2:E3:60:C7

    Signature Algorithm: sha256WithRSAEncryption
         ad:50:6c:b8:20:17:71:4d:d4:52:86:e8:04:17:4a:d5:31:a6:
         69:6c:47:01:9b:d7:b6:38:29:c4:7e:db:20:e3:63:14:2f:4f:
         a7:c6:a6:f2:fd:9b:9e:6e:01:eb:cf:23:35:ad:e8:74:36:6d:
         ff:dc:37:10:0e:f7:1b:27:75:ce:61:62:54:15:d9:83:71:83:
         83:63:a0:f4:38:62:74:ea:f8:4c:ac:88:4e:3b:59:29:cb:08:
         87:e1:a4:00:14:26:1c:9f:44:ff:de:3f:56:10:09:a3:c7:0c:
         e2:df:e1:bc:7b:03:38:55:db:4e:e7:80:d6:fc:8b:cc:a9:f5:
         5c:e2:0f:a5:f2:fe:80:6e:ae:2c:4b:bf:85:de:c4:57:7e:90:
         a9:e8:44:ae:5a:99:7c:e7:3e:7e:18:6b:ee:9f:7f:14:c4:d0:
         16:ec:7c:14:ae:bb:a3:65:52:98:80:a7:9d:be:76:d7:ff:fe:
         cd:6b:4e:d9:0a:4c:08:7a:47:3c:9e:9b:5f:a6:e7:00:2c:66:
         73:01:9f:f3:2f:ed:02:34:a0:19:0c:b7:c9:cd:98:ce:3e:b7:
         ea:86:ec:52:02:e7:2d:34:53:22:fd:97:84:d9:f0:d3:a9:7c:
         ec:a5:af:4f:41:18:d7:0a:14:63:ed:2e:2f:d2:ad:28:1d:4a:
         9c:bd:cf:e2:39:ac:ed:e0:da:3e:f8:96:4b:7d:0f:56:d6:09:
         ad:40:e7:69:10:ea:02:1d:94:cb:40:3b:15:73:2a:ac:6d:6d:
         91:23:07:70:fe:e0:52:b6:ff:86:59:2f:b0:01:68:93:68:c9:
         d4:e6:cf:0b:dc:5f:15:6f:d2:f4:5c:ff:fe:f6:e1:51:c3:fa:
         3a:04:f1:1f:88:8e:49:d5:47:17:f8:3f:b9:3b:ee:9b:12:51:
         e6:40:51:48:52:5a:b6:47:ee:4d:fc:fd:7e:97:5b:6d:a4:c7:
         1f:93:e3:e7:4e:c1:7e:d3:d1:53:49:54:d8:e9:38:f4:eb:cf:
         49:32:bd:75:f3:7d:03:0b:ce:c9:38:8b:60:25:c0:5a:1a:25:
         cf:0b:36:3c:30:1d:36:6f:27:c0:d0:e9:77:f9:97:11:8a:28:
         0e:85:18:ff:8e:71:81:60:b8:35:6f:0a:ce:44:69:11:f9:0c:
         9c:7a:c7:43:2d:21:e7:17:89:0e:d2:e3:e2:8d:bd:7d:66:52:
         fc:3e:f5:8a:9f:13:37:1b:4a:26:58:6c:bd:1a:11:dc:68:7b:
         49:e9:77:31:df:8a:05:c3:81:84:e1:5b:2d:cc:fd:cf:1b:80:
         7e:b9:ec:7c:a0:29:5a:e7:d5:a7:40:ff:18:fb:71:bd:70:2d:
         38:49:89:cf:74:2b:d7:db
-----BEGIN CERTIFICATE-----
MIIE7TCCAtWgAwIBAgICEjQwDQYJKoZIhvcNAQELBQAwgYMxCzAJBgNVBAYTAkVD
MQ4wDAYDVQQIDAVBenVheTEPMA0GA1UEBwwGQ3VlbmNhMRUwEwYDVQQKDAxDcmlw
dG9ncmFmaWExFzAVBgNVBAMMDnByYWN0aWNhLmxvY2FsMSMwIQYJKoZIhvcNAQkB
FhRhZG1pbkBwcmFjdGljYS5sb2NhbDAeFw0yMTAyMTAyMDIxMjNaFw0yMjAyMTAy
MDIxMjNaMHIxCzAJBgNVBAYTAkVDMQ4wDAYDVQQIDAVBenVheTEVMBMGA1UECgwM
Q3JpcHRvZ3JhZmlhMRcwFQYDVQQDDA5wcmFjdGljYS5sb2NhbDEjMCEGCSqGSIb3
DQEJARYUYWRtaW5AcHJhY3RpY2EubG9jYWwwggEiMA0GCSqGSIb3DQEBAQUAA4IB
DwAwggEKAoIBAQDFrM/vLWcwWBsp4+s8yJyXZd+S+QL6uHVvC57HeWQnV7CPpTUu
7mn1GQ5D3HCd71Lry8wunb6Zg9TF4cNhshS8hmPKBoTtNBBZkOowSJNEU4hwW2TN
CGR6IsxTmO+Xow/O6HC9felwck6U5e5sf5ZBc8aMFlfH7ZW/3co+K/uRcd+Z4YAz
rUkdaOb5WpF118nE3z38w6URasVC2BrOiAepRau3tTxiNyNJcA9+4b/uKzyb73iH
R5eJ+UPLMhSaMrPm4SxN9L8IDFzb6yM+17P4ys5ahvV8eAmqcFaQ3SU/GG/wrRLd
wGV9sVBIoUKwHt3HPQbzdsY9e/ipaqzxsY7rAgMBAAGjezB5MAkGA1UdEwQCMAAw
LAYJYIZIAYb4QgENBB8WHU9wZW5TU0wgR2VuZXJhdGVkIENlcnRpZmljYXRlMB0G
A1UdDgQWBBRQ4TbFfZPBKFvhqGd7XbHdp2N9wTAfBgNVHSMEGDAWgBSO4vWWAo7f
3IdqBRvz26JbwuNgxzANBgkqhkiG9w0BAQsFAAOCAgEArVBsuCAXcU3UUoboBBdK
1TGmaWxHAZvXtjgpxH7bIONjFC9Pp8am8v2bnm4B688jNa3odDZt/9w3EA73Gyd1
zmFiVBXZg3GDg2Og9DhidOr4TKyITjtZKcsIh+GkABQmHJ9E/94/VhAJo8cM4t/h
vHsDOFXbTueA1vyLzKn1XOIPpfL+gG6uLEu/hd7EV36QqehErlqZfOc+fhhr7p9/
FMTQFux8FK67o2VSmICnnb521//+zWtO2QpMCHpHPJ6bX6bnACxmcwGf8y/tAjSg
GQy3yc2Yzj636obsUgLnLTRTIv2XhNnw06l87KWvT0EY1woUY+0uL9KtKB1KnL3P
4jms7eDaPviWS30PVtYJrUDnaRDqAh2Uy0A7FXMqrG1tkSMHcP7gUrb/hlkvsAFo
k2jJ1ObPC9xfFW/S9Fz//vbhUcP6OgTxH4iOSdVHF/g/uTvumxJR5kBRSFJatkfu
Tfz9fpdbbaTHH5Pj507BftPRU0lU2Ok49OvPSTK9dfN9AwvOyTiLYCXAWholzws2
PDAdNm8nwNDpd/mXEYooDoUY/45xgWC4NW8KzkRpEfkMnHrHQy0h5xeJDtLj4o29
fWZS/D71ip8TNxtKJlhsvRoR3Gh7Sel3Md+KBcOBhOFbLcz9zxuAfrnsfKApWufV
p0D/GPtxvXAtOEmJz3Qr19s=
-----END CERTIFICATE-----
